target datalayout = "e-m:e-p270:32:32-p271:32:32-p272:64:64-i64:64-i128:128-f80:128-n8:16:32:64-S128"
target triple = "x86_64-pc-linux-gnu"

%struct.grep_opt = type { ptr, ptr, ptr, ptr, ptr, ptr, i32, i32, i32, i32, i32, i32, i32, i32, i32, i32, i32, i32, i32, i32, i32, i32, i32, i32, i32, i32, i32, i32, i32, i32, i32, i32, [9 x [75 x i8]], i32, i32, i32, i32, i32, i32, i32, ptr, ptr, ptr }

@.str.61 = private unnamed_addr constant [2 x i8] zeroinitializer, align 1
@.str.62 = private unnamed_addr constant [2 x i8] c"\0A\00", align 1
@.str.63 = private unnamed_addr constant [4 x i8] c"\1B[m\00", align 1
@.str.65 = private unnamed_addr constant [3 x i8] c"%d\00", align 1
@.str.66 = private unnamed_addr constant [4 x i8] c"%lu\00", align 1

; Function Attrs: nounwind uwtable
define internal void @output_sep(ptr noundef %0, i8 noundef signext %1) #0 {
  %3 = alloca ptr, align 8
  %4 = alloca i8, align 1
  store ptr %0, ptr %3, align 8, !tbaa !19
  store i8 %1, ptr %4, align 1, !tbaa !36
  %5 = load ptr, ptr %3, align 8, !tbaa !19
  %6 = getelementptr inbounds nuw %struct.grep_opt, ptr %5, i32 0, i32 23
  %7 = load i32, ptr %6, align 4, !tbaa !164
  %8 = icmp ne i32 %7, 0
  br i1 %8, label %9, label %14

9:                                                ; preds = %2
  %10 = load ptr, ptr %3, align 8, !tbaa !19
  %11 = getelementptr inbounds nuw %struct.grep_opt, ptr %10, i32 0, i32 41
  %12 = load ptr, ptr %11, align 8, !tbaa !93
  %13 = load ptr, ptr %3, align 8, !tbaa !19
  call void %12(ptr noundef %13, ptr noundef @.str.61, i64 noundef 1)
  br label %20

14:                                               ; preds = %2
  %15 = load ptr, ptr %3, align 8, !tbaa !19
  %16 = load ptr, ptr %3, align 8, !tbaa !19
  %17 = getelementptr inbounds nuw %struct.grep_opt, ptr %16, i32 0, i32 32
  %18 = getelementptr inbounds [9 x [75 x i8]], ptr %17, i64 0, i64 8
  %19 = getelementptr inbounds [75 x i8], ptr %18, i64 0, i64 0
  call void @output_color(ptr noundef %15, ptr noundef %4, i64 noundef 1, ptr noundef %19)
  br label %20

20:                                               ; preds = %14, %9
  ret void
}

; Function Attrs: nounwind uwtable
define internal void @output_color(ptr noundef %0, ptr noundef %1, i64 noundef %2, ptr noundef %3) #0 {
  %5 = alloca ptr, align 8
  %6 = alloca ptr, align 8
  %7 = alloca i64, align 8
  %8 = alloca ptr, align 8
  store ptr %0, ptr %5, align 8, !tbaa !19
  store ptr %1, ptr %6, align 8, !tbaa !18
  store i64 %2, ptr %7, align 8, !tbaa !11
  store ptr %3, ptr %8, align 8, !tbaa !9
  %9 = load ptr, ptr %5, align 8, !tbaa !19
  %10 = getelementptr inbounds nuw %struct.grep_opt, ptr %9, i32 0, i32 25
  %11 = load i32, ptr %10, align 4, !tbaa !32
  %12 = call i32 @want_color_fd(i32 noundef 1, i32 noundef %11)
  %13 = icmp ne i32 %12, 0
  br i1 %13, label %14, label %41

14:                                               ; preds = %4
  %15 = load ptr, ptr %8, align 8, !tbaa !9
  %16 = icmp ne ptr %15, null
  br i1 %16, label %17, label %41

17:                                               ; preds = %14
  %18 = load ptr, ptr %8, align 8, !tbaa !9
  %19 = getelementptr inbounds i8, ptr %18, i64 0
  %20 = load i8, ptr %19, align 1, !tbaa !36
  %21 = sext i8 %20 to i32
  %22 = icmp ne i32 %21, 0
  br i1 %22, label %23, label %41

23:                                               ; preds = %17
  %24 = load ptr, ptr %5, align 8, !tbaa !19
  %25 = getelementptr inbounds nuw %struct.grep_opt, ptr %24, i32 0, i32 41
  %26 = load ptr, ptr %25, align 8, !tbaa !93
  %27 = load ptr, ptr %5, align 8, !tbaa !19
  %28 = load ptr, ptr %8, align 8, !tbaa !9
  %29 = load ptr, ptr %8, align 8, !tbaa !9
  %30 = call i64 @strlen(ptr noundef %29) #12
  call void %26(ptr noundef %27, ptr noundef %28, i64 noundef %30)
  %31 = load ptr, ptr %5, align 8, !tbaa !19
  %32 = getelementptr inbounds nuw %struct.grep_opt, ptr %31, i32 0, i32 41
  %33 = load ptr, ptr %32, align 8, !tbaa !93
  %34 = load ptr, ptr %5, align 8, !tbaa !19
  %35 = load ptr, ptr %6, align 8, !tbaa !18
  %36 = load i64, ptr %7, align 8, !tbaa !11
  call void %33(ptr noundef %34, ptr noundef %35, i64 noundef %36)
  %37 = load ptr, ptr %5, align 8, !tbaa !19
  %38 = getelementptr inbounds nuw %struct.grep_opt, ptr %37, i32 0, i32 41
  %39 = load ptr, ptr %38, align 8, !tbaa !93
  %40 = load ptr, ptr %5, align 8, !tbaa !19
  call void %39(ptr noundef %40, ptr noundef @.str.63, i64 noundef 3)
  br label %48

41:                                               ; preds = %17, %14, %4
  %42 = load ptr, ptr %5, align 8, !tbaa !19
  %43 = getelementptr inbounds nuw %struct.grep_opt, ptr %42, i32 0, i32 41
  %44 = load ptr, ptr %43, align 8, !tbaa !93
  %45 = load ptr, ptr %5, align 8, !tbaa !19
  %46 = load ptr, ptr %6, align 8, !tbaa !18
  %47 = load i64, ptr %7, align 8, !tbaa !11
  call void %44(ptr noundef %45, ptr noundef %46, i64 noundef %47)
  br label %48

48:                                               ; preds = %41, %23
  ret void
}

; Function Attrs: nounwind uwtable
define internal void @show_line_header(ptr noundef %0, ptr noundef %1, i32 noundef %2, i64 noundef %3, i8 noundef signext %4) #0 {
  %6 = alloca ptr, align 8
  %7 = alloca ptr, align 8
  %8 = alloca i32, align 4
  %9 = alloca i64, align 8
  %10 = alloca i8, align 1
  %11 = alloca [32 x i8], align 16
  %12 = alloca [32 x i8], align 16
  store ptr %0, ptr %6, align 8, !tbaa !19
  store ptr %1, ptr %7, align 8, !tbaa !9
  store i32 %2, ptr %8, align 4, !tbaa !33
  store i64 %3, ptr %9, align 8, !tbaa !11
  store i8 %4, ptr %10, align 1, !tbaa !36
  %13 = load ptr, ptr %6, align 8, !tbaa !19
  %14 = getelementptr inbounds nuw %struct.grep_opt, ptr %13, i32 0, i32 38
  %15 = load i32, ptr %14, align 8, !tbaa !192
  %16 = icmp ne i32 %15, 0
  br i1 %16, label %17, label %35

17:                                               ; preds = %5
  %18 = load ptr, ptr %6, align 8, !tbaa !19
  %19 = getelementptr inbounds nuw %struct.grep_opt, ptr %18, i32 0, i32 35
  %20 = load i32, ptr %19, align 4, !tbaa !98
  %21 = icmp eq i32 %20, 0
  br i1 %21, label %22, label %35

22:                                               ; preds = %17
  %23 = load ptr, ptr %6, align 8, !tbaa !19
  %24 = load ptr, ptr %7, align 8, !tbaa !9
  %25 = load ptr, ptr %7, align 8, !tbaa !9
  %26 = call i64 @strlen(ptr noundef %25) #12
  %27 = load ptr, ptr %6, align 8, !tbaa !19
  %28 = getelementptr inbounds nuw %struct.grep_opt, ptr %27, i32 0, i32 32
  %29 = getelementptr inbounds [9 x [75 x i8]], ptr %28, i64 0, i64 1
  %30 = getelementptr inbounds [75 x i8], ptr %29, i64 0, i64 0
  call void @output_color(ptr noundef %23, ptr noundef %24, i64 noundef %26, ptr noundef %30)
  %31 = load ptr, ptr %6, align 8, !tbaa !19
  %32 = getelementptr inbounds nuw %struct.grep_opt, ptr %31, i32 0, i32 41
  %33 = load ptr, ptr %32, align 8, !tbaa !93
  %34 = load ptr, ptr %6, align 8, !tbaa !19
  call void %33(ptr noundef %34, ptr noundef @.str.62, i64 noundef 1)
  br label %35

35:                                               ; preds = %22, %17, %5
  %36 = load i32, ptr %8, align 4, !tbaa !33
  %37 = load ptr, ptr %6, align 8, !tbaa !19
  %38 = getelementptr inbounds nuw %struct.grep_opt, ptr %37, i32 0, i32 35
  store i32 %36, ptr %38, align 4, !tbaa !98
  %39 = load ptr, ptr %6, align 8, !tbaa !19
  %40 = getelementptr inbounds nuw %struct.grep_opt, ptr %39, i32 0, i32 38
  %41 = load i32, ptr %40, align 8, !tbaa !192
  %42 = icmp ne i32 %41, 0
  br i1 %42, label %59, label %43

43:                                               ; preds = %35
  %44 = load ptr, ptr %6, align 8, !tbaa !19
  %45 = getelementptr inbounds nuw %struct.grep_opt, ptr %44, i32 0, i32 22
  %46 = load i32, ptr %45, align 8, !tbaa !132
  %47 = icmp ne i32 %46, 0
  br i1 %47, label %48, label %59

48:                                               ; preds = %43
  %49 = load ptr, ptr %6, align 8, !tbaa !19
  %50 = load ptr, ptr %7, align 8, !tbaa !9
  %51 = load ptr, ptr %7, align 8, !tbaa !9
  %52 = call i64 @strlen(ptr noundef %51) #12
  %53 = load ptr, ptr %6, align 8, !tbaa !19
  %54 = getelementptr inbounds nuw %struct.grep_opt, ptr %53, i32 0, i32 32
  %55 = getelementptr inbounds [9 x [75 x i8]], ptr %54, i64 0, i64 1
  %56 = getelementptr inbounds [75 x i8], ptr %55, i64 0, i64 0
  call void @output_color(ptr noundef %49, ptr noundef %50, i64 noundef %52, ptr noundef %56)
  %57 = load ptr, ptr %6, align 8, !tbaa !19
  %58 = load i8, ptr %10, align 1, !tbaa !36
  call void @output_sep(ptr noundef %57, i8 noundef signext %58)
  br label %59

59:                                               ; preds = %48, %43, %35
  %60 = load ptr, ptr %6, align 8, !tbaa !19
  %61 = getelementptr inbounds nuw %struct.grep_opt, ptr %60, i32 0, i32 6
  %62 = load i32, ptr %61, align 8, !tbaa !29
  %63 = icmp ne i32 %62, 0
  br i1 %63, label %64, label %78

64:                                               ; preds = %59
  call void @llvm.lifetime.start.p0(i64 32, ptr %11) #11
  %65 = getelementptr inbounds [32 x i8], ptr %11, i64 0, i64 0
  %66 = load i32, ptr %8, align 4, !tbaa !33
  %67 = call i32 (ptr, i64, ptr, ...) @xsnprintf(ptr noundef %65, i64 noundef 32, ptr noundef @.str.65, i32 noundef %66)
  %68 = load ptr, ptr %6, align 8, !tbaa !19
  %69 = getelementptr inbounds [32 x i8], ptr %11, i64 0, i64 0
  %70 = getelementptr inbounds [32 x i8], ptr %11, i64 0, i64 0
  %71 = call i64 @strlen(ptr noundef %70) #12
  %72 = load ptr, ptr %6, align 8, !tbaa !19
  %73 = getelementptr inbounds nuw %struct.grep_opt, ptr %72, i32 0, i32 32
  %74 = getelementptr inbounds [9 x [75 x i8]], ptr %73, i64 0, i64 3
  %75 = getelementptr inbounds [75 x i8], ptr %74, i64 0, i64 0
  call void @output_color(ptr noundef %68, ptr noundef %69, i64 noundef %71, ptr noundef %75)
  %76 = load ptr, ptr %6, align 8, !tbaa !19
  %77 = load i8, ptr %10, align 1, !tbaa !36
  call void @output_sep(ptr noundef %76, i8 noundef signext %77)
  call void @llvm.lifetime.end.p0(i64 32, ptr %11) #11
  br label %78

78:                                               ; preds = %64, %59
  %79 = load ptr, ptr %6, align 8, !tbaa !19
  %80 = getelementptr inbounds nuw %struct.grep_opt, ptr %79, i32 0, i32 7
  %81 = load i32, ptr %80, align 4, !tbaa !30
  %82 = icmp ne i32 %81, 0
  br i1 %82, label %83, label %100

83:                                               ; preds = %78
  %84 = load i64, ptr %9, align 8, !tbaa !11
  %85 = icmp ne i64 %84, 0
  br i1 %85, label %86, label %100

86:                                               ; preds = %83
  call void @llvm.lifetime.start.p0(i64 32, ptr %12) #11
  %87 = getelementptr inbounds [32 x i8], ptr %12, i64 0, i64 0
  %88 = load i64, ptr %9, align 8, !tbaa !11
  %89 = call i32 (ptr, i64, ptr, ...) @xsnprintf(ptr noundef %87, i64 noundef 32, ptr noundef @.str.66, i64 noundef %88)
  %90 = load ptr, ptr %6, align 8, !tbaa !19
  %91 = getelementptr inbounds [32 x i8], ptr %12, i64 0, i64 0
  %92 = getelementptr inbounds [32 x i8], ptr %12, i64 0, i64 0
  %93 = call i64 @strlen(ptr noundef %92) #12
  %94 = load ptr, ptr %6, align 8, !tbaa !19
  %95 = getelementptr inbounds nuw %struct.grep_opt, ptr %94, i32 0, i32 32
  %96 = getelementptr inbounds [9 x [75 x i8]], ptr %95, i64 0, i64 4
  %97 = getelementptr inbounds [75 x i8], ptr %96, i64 0, i64 0
  call void @output_color(ptr noundef %90, ptr noundef %91, i64 noundef %93, ptr noundef %97)
  %98 = load ptr, ptr %6, align 8, !tbaa !19
  %99 = load i8, ptr %10, align 1, !tbaa !36
  call void @output_sep(ptr noundef %98, i8 noundef signext %99)
  call void @llvm.lifetime.end.p0(i64 32, ptr %12) #11
  br label %100

100:                                              ; preds = %86, %83, %78
  ret void
}