; Function Attrs: nounwind uwtable
define internal fastcc void @show_line_header(ptr noundef %0, ptr noundef %1, i32 noundef %2, i64 noundef %3, i8 noundef signext range(i8 45, 62) %4) unnamed_addr #0 {
  %6 = alloca i8, align 1
  %7 = alloca i8, align 1
  %8 = alloca i8, align 1
  %9 = alloca [32 x i8], align 16
  %10 = alloca [32 x i8], align 16
  %11 = getelementptr inbounds nuw i8, ptr %0, i64 848
  %12 = load i32, ptr %11, align 8, !tbaa !160
  %.not = icmp eq i32 %12, 0
  %13 = getelementptr inbounds nuw i8, ptr %0, i64 836
  br i1 %.not, label %.thread, label %14

.thread:                                          ; preds = %5
  store i32 %2, ptr %13, align 4, !tbaa !85
  br label %38

14:                                               ; preds = %5
  %15 = load i32, ptr %13, align 4, !tbaa !85
  %16 = icmp eq i32 %15, 0
  br i1 %16, label %17, label %.thread55

.thread55:                                        ; preds = %14
  store i32 %2, ptr %13, align 4, !tbaa !85
  br label %78

17:                                               ; preds = %14
  %18 = tail call i64 @strlen(ptr noundef nonnull dereferenceable(1) %1) #19
  %19 = getelementptr inbounds nuw i8, ptr %0, i64 227
  %20 = getelementptr inbounds nuw i8, ptr %0, i64 124
  %21 = load i32, ptr %20, align 4, !tbaa !22
  %22 = tail call i32 @want_color_fd(i32 noundef 1, i32 noundef %21) #18
  %.not50 = icmp eq i32 %22, 0
  br i1 %.not50, label %31, label %23

23:                                               ; preds = %17
  %24 = load i8, ptr %19, align 1, !tbaa !23
  %.not.i = icmp eq i8 %24, 0
  br i1 %.not.i, label %31, label %25

25:                                               ; preds = %23
  %26 = getelementptr inbounds nuw i8, ptr %0, i64 864
  %27 = load ptr, ptr %26, align 8, !tbaa !80
  %28 = tail call i64 @strlen(ptr noundef nonnull dereferenceable(1) %19) #19
  tail call void %27(ptr noundef nonnull %0, ptr noundef nonnull %19, i64 noundef %28) #18
  %29 = load ptr, ptr %26, align 8, !tbaa !80
  tail call void %29(ptr noundef nonnull %0, ptr noundef nonnull %1, i64 noundef %18) #18
  %30 = load ptr, ptr %26, align 8, !tbaa !80
  tail call void %30(ptr noundef nonnull %0, ptr noundef nonnull @.str.63, i64 noundef 3) #18
  br label %34

31:                                               ; preds = %23, %17
  %32 = getelementptr inbounds nuw i8, ptr %0, i64 864
  %33 = load ptr, ptr %32, align 8, !tbaa !80
  tail call void %33(ptr noundef nonnull %0, ptr noundef nonnull %1, i64 noundef %18) #18
  br label %34

34:                                               ; preds = %31, %25
  %35 = getelementptr inbounds nuw i8, ptr %0, i64 864
  %36 = load ptr, ptr %35, align 8, !tbaa !80
  tail call void %36(ptr noundef nonnull %0, ptr noundef nonnull @.str.62, i64 noundef 1) #18
  %.pr.pre = load i32, ptr %11, align 8, !tbaa !160
  %37 = icmp eq i32 %.pr.pre, 0
  store i32 %2, ptr %13, align 4, !tbaa !85
  br i1 %37, label %38, label %78

38:                                               ; preds = %.thread, %34
  %39 = getelementptr inbounds nuw i8, ptr %0, i64 112
  %40 = load i32, ptr %39, align 8, !tbaa !139
  %.not32 = icmp eq i32 %40, 0
  br i1 %.not32, label %78, label %41

41:                                               ; preds = %38
  %42 = tail call i64 @strlen(ptr noundef nonnull dereferenceable(1) %1) #19
  %43 = getelementptr inbounds nuw i8, ptr %0, i64 227
  %44 = getelementptr inbounds nuw i8, ptr %0, i64 124
  %45 = load i32, ptr %44, align 4, !tbaa !22
  %46 = tail call i32 @want_color_fd(i32 noundef 1, i32 noundef %45) #18
  %.not51 = icmp eq i32 %46, 0
  br i1 %.not51, label %55, label %47

47:                                               ; preds = %41
  %48 = load i8, ptr %43, align 1, !tbaa !23
  %.not.i34 = icmp eq i8 %48, 0
  br i1 %.not.i34, label %55, label %49

49:                                               ; preds = %47
  %50 = getelementptr inbounds nuw i8, ptr %0, i64 864
  %51 = load ptr, ptr %50, align 8, !tbaa !80
  %52 = tail call i64 @strlen(ptr noundef nonnull dereferenceable(1) %43) #19
  tail call void %51(ptr noundef nonnull %0, ptr noundef nonnull %43, i64 noundef %52) #18
  %53 = load ptr, ptr %50, align 8, !tbaa !80
  tail call void %53(ptr noundef nonnull %0, ptr noundef nonnull %1, i64 noundef %42) #18
  %54 = load ptr, ptr %50, align 8, !tbaa !80
  tail call void %54(ptr noundef nonnull %0, ptr noundef nonnull @.str.63, i64 noundef 3) #18
  br label %output_color.exit35

55:                                               ; preds = %47, %41
  %56 = getelementptr inbounds nuw i8, ptr %0, i64 864
  %57 = load ptr, ptr %56, align 8, !tbaa !80
  tail call void %57(ptr noundef nonnull %0, ptr noundef nonnull %1, i64 noundef %42) #18
  br label %output_color.exit35

output_color.exit35:                              ; preds = %49, %55
  call void @llvm.lifetime.start.p0(i64 1, ptr nonnull %8)
  store i8 %4, ptr %8, align 1, !tbaa !23
  %58 = getelementptr inbounds nuw i8, ptr %0, i64 116
  %59 = load i32, ptr %58, align 4, !tbaa !134
  %.not.i36 = icmp eq i32 %59, 0
  br i1 %.not.i36, label %63, label %60

60:                                               ; preds = %output_color.exit35
  %61 = getelementptr inbounds nuw i8, ptr %0, i64 864
  %62 = load ptr, ptr %61, align 8, !tbaa !80
  tail call void %62(ptr noundef nonnull %0, ptr noundef nonnull @.str.61, i64 noundef 1) #18
  br label %output_sep.exit

63:                                               ; preds = %output_color.exit35
  %64 = getelementptr inbounds nuw i8, ptr %0, i64 752
  %65 = load i32, ptr %44, align 4, !tbaa !22
  %66 = tail call i32 @want_color_fd(i32 noundef 1, i32 noundef %65) #18
  %.not5.i = icmp eq i32 %66, 0
  br i1 %.not5.i, label %75, label %67

67:                                               ; preds = %63
  %68 = load i8, ptr %64, align 1, !tbaa !23
  %.not.i.i = icmp eq i8 %68, 0
  br i1 %.not.i.i, label %75, label %69

69:                                               ; preds = %67
  %70 = getelementptr inbounds nuw i8, ptr %0, i64 864
  %71 = load ptr, ptr %70, align 8, !tbaa !80
  %72 = tail call i64 @strlen(ptr noundef nonnull dereferenceable(1) %64) #19
  tail call void %71(ptr noundef nonnull %0, ptr noundef nonnull %64, i64 noundef %72) #18
  %73 = load ptr, ptr %70, align 8, !tbaa !80
  call void %73(ptr noundef nonnull %0, ptr noundef nonnull %8, i64 noundef 1) #18
  %74 = load ptr, ptr %70, align 8, !tbaa !80
  call void %74(ptr noundef nonnull %0, ptr noundef nonnull @.str.63, i64 noundef 3) #18
  br label %output_sep.exit

75:                                               ; preds = %67, %63
  %76 = getelementptr inbounds nuw i8, ptr %0, i64 864
  %77 = load ptr, ptr %76, align 8, !tbaa !80
  call void %77(ptr noundef nonnull %0, ptr noundef nonnull %8, i64 noundef 1) #18
  br label %output_sep.exit

output_sep.exit:                                  ; preds = %60, %69, %75
  call void @llvm.lifetime.end.p0(i64 1, ptr nonnull %8)
  br label %78

78:                                               ; preds = %.thread55, %output_sep.exit, %38, %34
  %79 = getelementptr inbounds nuw i8, ptr %0, i64 48
  %80 = load i32, ptr %79, align 8, !tbaa !19
  %.not33 = icmp eq i32 %80, 0
  br i1 %.not33, label %119, label %81

81:                                               ; preds = %78
  call void @llvm.lifetime.start.p0(i64 32, ptr nonnull %9) #18
  %82 = call i32 (ptr, i64, ptr, ...) @xsnprintf(ptr noundef nonnull %9, i64 noundef 32, ptr noundef nonnull @.str.65, i32 noundef %2) #18
  %83 = call i64 @strlen(ptr noundef nonnull dereferenceable(1) %9) #19
  %84 = getelementptr inbounds nuw i8, ptr %0, i64 377
  %85 = getelementptr inbounds nuw i8, ptr %0, i64 124
  %86 = load i32, ptr %85, align 4, !tbaa !22
  %87 = call i32 @want_color_fd(i32 noundef 1, i32 noundef %86) #18
  %.not52 = icmp eq i32 %87, 0
  br i1 %.not52, label %96, label %88

88:                                               ; preds = %81
  %89 = load i8, ptr %84, align 1, !tbaa !23
  %.not.i37 = icmp eq i8 %89, 0
  br i1 %.not.i37, label %96, label %90

90:                                               ; preds = %88
  %91 = getelementptr inbounds nuw i8, ptr %0, i64 864
  %92 = load ptr, ptr %91, align 8, !tbaa !80
  %93 = call i64 @strlen(ptr noundef nonnull dereferenceable(1) %84) #19
  call void %92(ptr noundef nonnull %0, ptr noundef nonnull %84, i64 noundef %93) #18
  %94 = load ptr, ptr %91, align 8, !tbaa !80
  call void %94(ptr noundef nonnull %0, ptr noundef nonnull %9, i64 noundef %83) #18
  %95 = load ptr, ptr %91, align 8, !tbaa !80
  call void %95(ptr noundef nonnull %0, ptr noundef nonnull @.str.63, i64 noundef 3) #18
  br label %output_color.exit38

96:                                               ; preds = %88, %81
  %97 = getelementptr inbounds nuw i8, ptr %0, i64 864
  %98 = load ptr, ptr %97, align 8, !tbaa !80
  call void %98(ptr noundef nonnull %0, ptr noundef nonnull %9, i64 noundef %83) #18
  br label %output_color.exit38

output_color.exit38:                              ; preds = %90, %96
  call void @llvm.lifetime.start.p0(i64 1, ptr nonnull %7)
  store i8 %4, ptr %7, align 1, !tbaa !23
  %99 = getelementptr inbounds nuw i8, ptr %0, i64 116
  %100 = load i32, ptr %99, align 4, !tbaa !134
  %.not.i39 = icmp eq i32 %100, 0
  br i1 %.not.i39, label %104, label %101

101:                                              ; preds = %output_color.exit38
  %102 = getelementptr inbounds nuw i8, ptr %0, i64 864
  %103 = load ptr, ptr %102, align 8, !tbaa !80
  call void %103(ptr noundef nonnull %0, ptr noundef nonnull @.str.61, i64 noundef 1) #18
  br label %output_sep.exit42

104:                                              ; preds = %output_color.exit38
  %105 = getelementptr inbounds nuw i8, ptr %0, i64 752
  %106 = load i32, ptr %85, align 4, !tbaa !22
  %107 = call i32 @want_color_fd(i32 noundef 1, i32 noundef %106) #18
  %.not5.i40 = icmp eq i32 %107, 0
  br i1 %.not5.i40, label %116, label %108

108:                                              ; preds = %104
  %109 = load i8, ptr %105, align 1, !tbaa !23
  %.not.i.i41 = icmp eq i8 %109, 0
  br i1 %.not.i.i41, label %116, label %110

110:                                              ; preds = %108
  %111 = getelementptr inbounds nuw i8, ptr %0, i64 864
  %112 = load ptr, ptr %111, align 8, !tbaa !80
  %113 = call i64 @strlen(ptr noundef nonnull dereferenceable(1) %105) #19
  call void %112(ptr noundef nonnull %0, ptr noundef nonnull %105, i64 noundef %113) #18
  %114 = load ptr, ptr %111, align 8, !tbaa !80
  call void %114(ptr noundef nonnull %0, ptr noundef nonnull %7, i64 noundef 1) #18
  %115 = load ptr, ptr %111, align 8, !tbaa !80
  call void %115(ptr noundef nonnull %0, ptr noundef nonnull @.str.63, i64 noundef 3) #18
  br label %output_sep.exit42

116:                                              ; preds = %108, %104
  %117 = getelementptr inbounds nuw i8, ptr %0, i64 864
  %118 = load ptr, ptr %117, align 8, !tbaa !80
  call void %118(ptr noundef nonnull %0, ptr noundef nonnull %7, i64 noundef 1) #18
  br label %output_sep.exit42

output_sep.exit42:                                ; preds = %101, %110, %116
  call void @llvm.lifetime.end.p0(i64 1, ptr nonnull %7)
  call void @llvm.lifetime.end.p0(i64 32, ptr nonnull %9) #18
  br label %119

119:                                              ; preds = %output_sep.exit42, %78
  %120 = getelementptr inbounds nuw i8, ptr %0, i64 52
  %121 = load i32, ptr %120, align 4, !tbaa !20
  %122 = icmp ne i32 %121, 0
  %123 = icmp ne i64 %3, 0
  %or.cond = and i1 %123, %122
  br i1 %or.cond, label %124, label %162

124:                                              ; preds = %119
  call void @llvm.lifetime.start.p0(i64 32, ptr nonnull %10) #18
  %125 = call i32 (ptr, i64, ptr, ...) @xsnprintf(ptr noundef nonnull %10, i64 noundef 32, ptr noundef nonnull @.str.66, i64 noundef %3) #18
  %126 = call i64 @strlen(ptr noundef nonnull dereferenceable(1) %10) #19
  %127 = getelementptr inbounds nuw i8, ptr %0, i64 452
  %128 = getelementptr inbounds nuw i8, ptr %0, i64 124
  %129 = load i32, ptr %128, align 4, !tbaa !22
  %130 = call i32 @want_color_fd(i32 noundef 1, i32 noundef %129) #18
  %.not53 = icmp eq i32 %130, 0
  br i1 %.not53, label %139, label %131

131:                                              ; preds = %124
  %132 = load i8, ptr %127, align 1, !tbaa !23
  %.not.i43 = icmp eq i8 %132, 0
  br i1 %.not.i43, label %139, label %133

133:                                              ; preds = %131
  %134 = getelementptr inbounds nuw i8, ptr %0, i64 864
  %135 = load ptr, ptr %134, align 8, !tbaa !80
  %136 = call i64 @strlen(ptr noundef nonnull dereferenceable(1) %127) #19
  call void %135(ptr noundef nonnull %0, ptr noundef nonnull %127, i64 noundef %136) #18
  %137 = load ptr, ptr %134, align 8, !tbaa !80
  call void %137(ptr noundef nonnull %0, ptr noundef nonnull %10, i64 noundef %126) #18
  %138 = load ptr, ptr %134, align 8, !tbaa !80
  call void %138(ptr noundef nonnull %0, ptr noundef nonnull @.str.63, i64 noundef 3) #18
  br label %output_color.exit44

139:                                              ; preds = %131, %124
  %140 = getelementptr inbounds nuw i8, ptr %0, i64 864
  %141 = load ptr, ptr %140, align 8, !tbaa !80
  call void %141(ptr noundef nonnull %0, ptr noundef nonnull %10, i64 noundef %126) #18
  br label %output_color.exit44

output_color.exit44:                              ; preds = %133, %139
  call void @llvm.lifetime.start.p0(i64 1, ptr nonnull %6)
  store i8 %4, ptr %6, align 1, !tbaa !23
  %142 = getelementptr inbounds nuw i8, ptr %0, i64 116
  %143 = load i32, ptr %142, align 4, !tbaa !134
  %.not.i45 = icmp eq i32 %143, 0
  br i1 %.not.i45, label %147, label %144

144:                                              ; preds = %output_color.exit44
  %145 = getelementptr inbounds nuw i8, ptr %0, i64 864
  %146 = load ptr, ptr %145, align 8, !tbaa !80
  call void %146(ptr noundef nonnull %0, ptr noundef nonnull @.str.61, i64 noundef 1) #18
  br label %output_sep.exit48

147:                                              ; preds = %output_color.exit44
  %148 = getelementptr inbounds nuw i8, ptr %0, i64 752
  %149 = load i32, ptr %128, align 4, !tbaa !22
  %150 = call i32 @want_color_fd(i32 noundef 1, i32 noundef %149) #18
  %.not5.i46 = icmp eq i32 %150, 0
  br i1 %.not5.i46, label %159, label %151

151:                                              ; preds = %147
  %152 = load i8, ptr %148, align 1, !tbaa !23
  %.not.i.i47 = icmp eq i8 %152, 0
  br i1 %.not.i.i47, label %159, label %153

153:                                              ; preds = %151
  %154 = getelementptr inbounds nuw i8, ptr %0, i64 864
  %155 = load ptr, ptr %154, align 8, !tbaa !80
  %156 = call i64 @strlen(ptr noundef nonnull dereferenceable(1) %148) #19
  call void %155(ptr noundef nonnull %0, ptr noundef nonnull %148, i64 noundef %156) #18
  %157 = load ptr, ptr %154, align 8, !tbaa !80
  call void %157(ptr noundef nonnull %0, ptr noundef nonnull %6, i64 noundef 1) #18
  %158 = load ptr, ptr %154, align 8, !tbaa !80
  call void %158(ptr noundef nonnull %0, ptr noundef nonnull @.str.63, i64 noundef 3) #18
  br label %output_sep.exit48

159:                                              ; preds = %151, %147
  %160 = getelementptr inbounds nuw i8, ptr %0, i64 864
  %161 = load ptr, ptr %160, align 8, !tbaa !80
  call void %161(ptr noundef nonnull %0, ptr noundef nonnull %6, i64 noundef 1) #18
  br label %output_sep.exit48

output_sep.exit48:                                ; preds = %144, %153, %159
  call void @llvm.lifetime.end.p0(i64 1, ptr nonnull %6)
  call void @llvm.lifetime.end.p0(i64 32, ptr nonnull %10) #18
  br label %162

162:                                              ; preds = %output_sep.exit48, %119
  ret void
}